Certificate:
    Data:
        Version: 3 (0x2)
        Serial Number: 1 (0x1)
        Signature Algorithm: sha256WithRSAEncryption
        Issuer: O=Test Org, CN=Test Org rauc CA Development
        Validity
            Not Before: Jan  1 00:00:00 1970 GMT
            Not After : Dec 31 23:59:59 9999 GMT
        Subject: O=Test Org, CN=Test Org rauc CA Development
        Subject Public Key Info:
            Public Key Algorithm: rsaEncryption
                RSA Public-Key: (2048 bit)
                Modulus:
                    00:d8:f4:ae:bf:f9:f0:62:83:79:b5:57:e2:b6:0a:
                    45:89:54:49:0e:fb:99:89:2d:d9:79:b1:94:be:97:
                    02:2d:51:5e:8e:19:b7:ee:06:78:24:63:eb:8c:89:
                    57:01:88:b7:66:eb:fa:c2:4e:6f:fb:85:02:21:55:
                    b0:11:e6:38:7a:eb:aa:cd:da:e9:09:d2:a5:0a:7d:
                    ea:15:b3:97:0e:b7:bf:29:01:33:e8:fb:98:82:63:
                    04:84:f3:66:01:98:9f:06:34:35:f5:ab:c0:30:e8:
                    fa:f4:de:de:25:bd:59:8d:c0:bd:bc:57:29:52:0d:
                    bd:56:85:c3:c9:71:07:cf:a1:58:08:d7:b4:0f:50:
                    d6:dc:e0:b8:09:2d:f3:2c:fa:53:bb:e7:b6:98:f9:
                    c3:a5:5e:0c:8b:7f:a1:b1:f0:91:11:74:5d:2c:e5:
                    34:3b:cc:94:3b:51:2b:04:bf:ba:ec:22:d7:de:47:
                    4a:16:07:58:81:ed:5d:a5:e3:89:de:1b:f9:5b:72:
                    66:8b:7d:ad:ce:8e:d7:86:ad:04:f3:ee:95:06:72:
                    27:58:ad:d4:da:81:ec:3c:73:27:1d:2d:f5:71:74:
                    ee:4d:a2:64:18:77:a3:d2:25:03:c2:b8:fb:5e:4a:
                    7a:3b:c0:0a:12:2d:f3:d6:da:40:2c:cc:34:a0:52:
                    c4:2f
                Exponent: 65537 (0x10001)
        X509v3 extensions:
            X509v3 Subject Key Identifier: 
                16:1E:EC:50:21:9D:E6:B4:1D:A4:AF:F0:85:13:D8:D7:A5:EB:52:74
            X509v3 Authority Key Identifier: 
                keyid:16:1E:EC:50:21:9D:E6:B4:1D:A4:AF:F0:85:13:D8:D7:A5:EB:52:74
                DirName:/O=Test Org/CN=Test Org rauc CA Development
                serial:01

            X509v3 Basic Constraints: 
                CA:TRUE
    Signature Algorithm: sha256WithRSAEncryption
         48:8d:94:a2:ef:35:db:cd:55:e8:70:64:d9:4a:54:31:59:1f:
         d1:0b:50:07:a3:b4:33:3d:64:f2:f1:3f:95:a9:c6:87:a5:91:
         99:cc:0c:f3:13:ee:49:0d:4a:06:f9:ff:de:a4:ba:af:0c:1f:
         f4:b3:73:61:78:bb:9e:0a:ab:ee:0b:1c:99:ca:01:12:80:50:
         f1:38:a2:1f:b2:97:6b:0e:42:4d:8c:aa:c6:77:ad:84:fb:99:
         e4:e5:b5:08:f7:6c:46:0c:96:ff:8a:43:1f:e8:6a:2a:db:06:
         c3:50:b4:e5:24:45:fe:86:cd:53:b4:97:18:af:b6:16:19:dd:
         56:ad:fe:6f:97:5a:79:55:e8:51:9f:cb:f0:4f:3b:9c:4b:33:
         87:de:d7:4d:9e:0b:3c:66:93:26:2a:f1:d6:34:03:4a:29:69:
         dd:85:a2:70:55:e1:22:6b:09:3d:41:08:00:ca:75:08:66:ba:
         ca:50:11:0f:fb:f1:df:4c:1d:0b:9c:b0:b3:07:5c:d3:5a:2d:
         aa:48:9b:3b:fe:85:c8:68:83:2b:3c:28:a5:84:ba:5b:10:db:
         11:b2:03:31:8b:91:5d:ad:22:3b:86:28:94:df:1e:b7:13:64:
         ee:08:ce:d6:ef:86:59:5b:b7:f7:57:23:22:ff:e2:38:71:46:
         8c:6b:50:1a
-----BEGIN CERTIFICATE-----
MIIDhjCCAm6gAwIBAgIBATANBgkqhkiG9w0BAQsFADA6MREwDwYDVQQKDAhUZXN0
IE9yZzElMCMGA1UEAwwcVGVzdCBPcmcgcmF1YyBDQSBEZXZlbG9wbWVudDAgFw03
MDAxMDEwMDAwMDBaGA85OTk5MTIzMTIzNTk1OVowOjERMA8GA1UECgwIVGVzdCBP
cmcxJTAjBgNVBAMMHFRlc3QgT3JnIHJhdWMgQ0EgRGV2ZWxvcG1lbnQwggEiMA0G
CSqGSIb3DQEBAQUAA4IBDwAwggEKAoIBAQDY9K6/+fBig3m1V+K2CkWJVEkO+5mJ
Ldl5sZS+lwItUV6OGbfuBngkY+uMiVcBiLdm6/rCTm/7hQIhVbAR5jh666rN2ukJ
0qUKfeoVs5cOt78pATPo+5iCYwSE82YBmJ8GNDX1q8Aw6Pr03t4lvVmNwL28VylS
Db1WhcPJcQfPoVgI17QPUNbc4LgJLfMs+lO757aY+cOlXgyLf6Gx8JERdF0s5TQ7
zJQ7USsEv7rsItfeR0oWB1iB7V2l44neG/lbcmaLfa3OjteGrQTz7pUGcidYrdTa
gew8cycdLfVxdO5NomQYd6PSJQPCuPteSno7wAoSLfPW2kAszDSgUsQvAgMBAAGj
gZQwgZEwHQYDVR0OBBYEFBYe7FAhnea0HaSv8IUT2Nel61J0MGIGA1UdIwRbMFmA
FBYe7FAhnea0HaSv8IUT2Nel61J0oT6kPDA6MREwDwYDVQQKDAhUZXN0IE9yZzEl
MCMGA1UEAwwcVGVzdCBPcmcgcmF1YyBDQSBEZXZlbG9wbWVudIIBATAMBgNVHRME
BTADAQH/MA0GCSqGSIb3DQEBCwUAA4IBAQBIjZSi7zXbzVXocGTZSlQxWR/RC1AH
o7QzPWTy8T+VqcaHpZGZzAzzE+5JDUoG+f/epLqvDB/0s3NheLueCqvuCxyZygES
gFDxOKIfspdrDkJNjKrGd62E+5nk5bUI92xGDJb/ikMf6Goq2wbDULTlJEX+hs1T
tJcYr7YWGd1Wrf5vl1p5VehRn8vwTzucSzOH3tdNngs8ZpMmKvHWNANKKWndhaJw
VeEiawk9QQgAynUIZrrKUBEP+/HfTB0LnLCzB1zTWi2qSJs7/oXIaIMrPCilhLpb
ENsRsgMxi5FdrSI7hiiU3x63E2TuCM7W74ZZW7f3VyMi/+I4cUaMa1Aa
-----END CERTIFICATE-----
