Certificate:
    Data:
        Version: 3 (0x2)
        Serial Number: 2 (0x2)
        Signature Algorithm: sha256WithRSAEncryption
        Issuer: O=Test Org, CN=Test Org rauc CA Development
        Validity
            Not Before: Jan  1 00:00:00 1970 GMT
            Not After : Dec 31 23:59:59 9999 GMT
        Subject: O=Test Org, CN=Test Org Development-1
        Subject Public Key Info:
            Public Key Algorithm: rsaEncryption
                RSA Public-Key: (2048 bit)
                Modulus:
                    00:ef:2e:81:b3:eb:61:9d:70:69:7d:44:c2:06:c1:
                    b6:1d:00:ee:52:4b:80:41:51:62:c5:e3:21:ae:35:
                    00:05:8b:d1:8a:4f:c8:5c:7f:ba:a7:e7:31:a5:03:
                    f1:19:17:4c:b4:19:52:05:98:fb:5f:9a:f7:5f:2e:
                    67:40:50:39:a9:33:45:98:26:9b:61:9e:a5:3f:97:
                    36:be:3a:ff:17:9f:7b:fc:2f:35:3a:22:39:f7:2c:
                    75:b6:cb:60:be:9c:76:5d:90:7f:0b:f2:5e:6f:18:
                    0d:13:1c:ff:79:26:05:08:f7:9f:60:19:bf:fe:f8:
                    1c:b2:ef:51:87:d4:d4:8f:e5:41:ec:99:b1:3a:d7:
                    3d:cc:c7:2e:a4:f4:27:d9:71:7a:f0:3e:a6:b5:b2:
                    f4:6a:d7:0c:84:0f:16:7d:e0:94:f1:40:11:17:46:
                    7f:22:f2:0f:22:b9:83:e9:9b:7a:dd:f1:63:bf:9d:
                    ef:e1:bd:83:c9:52:cb:98:40:56:fb:69:72:0e:e8:
                    ae:74:cb:d6:8c:ff:bc:26:fc:3c:db:93:ba:47:4e:
                    95:84:41:43:3a:69:78:46:88:7a:a6:6b:b2:f1:1d:
                    3a:ad:ec:10:f5:20:c6:43:df:e8:26:d3:20:44:f4:
                    a8:21:db:c4:31:4f:bd:07:69:94:d0:d3:78:0a:09:
                    49:9f
                Exponent: 65537 (0x10001)
        X509v3 extensions:
            X509v3 Subject Key Identifier: 
                A4:2A:28:4F:F5:98:40:B8:D9:10:AE:D1:EF:63:41:4E:79:56:55:7C
            X509v3 Authority Key Identifier: 
                keyid:16:1E:EC:50:21:9D:E6:B4:1D:A4:AF:F0:85:13:D8:D7:A5:EB:52:74
                DirName:/O=Test Org/CN=Test Org rauc CA Development
                serial:01

            X509v3 Basic Constraints: 
                CA:FALSE
    Signature Algorithm: sha256WithRSAEncryption
         5d:5b:d1:fd:ab:43:b2:ce:c4:7a:f0:fa:50:51:42:45:2a:06:
         bb:9b:3a:ab:be:83:5c:36:2a:6e:53:28:a0:e7:ad:11:6a:12:
         d7:c7:e5:83:34:49:7f:19:da:e5:e5:dd:44:da:06:1a:0b:b0:
         da:bb:5f:3d:b7:5e:2e:81:14:85:56:03:af:c7:23:6e:96:80:
         6f:b0:ed:0a:87:2a:c8:ed:b1:ae:c9:6d:0f:a3:f0:76:99:f1:
         99:77:5a:0a:1b:3c:23:14:2a:b1:68:13:de:46:de:77:54:09:
         89:c8:e6:06:cd:c7:93:34:87:d5:5b:37:84:52:3c:c3:f0:df:
         74:b0:99:35:68:4e:a1:c0:36:39:f7:c3:db:a6:2d:2f:46:a5:
         32:f1:0c:ba:6a:cf:1f:be:a8:81:16:18:ef:f2:07:b3:89:1b:
         9e:85:d3:2c:c1:c6:19:d2:bc:92:1d:23:a5:1e:8c:f8:c3:e6:
         43:d0:cf:96:02:8d:b2:88:27:05:b7:f2:b1:ed:fe:e5:a5:38:
         ad:57:78:c1:aa:aa:6b:38:4d:c4:7e:79:20:c0:bf:42:4c:17:
         37:1c:18:60:0b:87:fc:93:27:fc:cd:0c:d1:f4:b8:9e:0e:d0:
         3a:fc:f3:94:89:92:b5:e5:ce:07:1e:dd:d0:67:f8:6a:84:52:
         d0:88:20:4c
-----BEGIN CERTIFICATE-----
MIIDfTCCAmWgAwIBAgIBAjANBgkqhkiG9w0BAQsFADA6MREwDwYDVQQKDAhUZXN0
IE9yZzElMCMGA1UEAwwcVGVzdCBPcmcgcmF1YyBDQSBEZXZlbG9wbWVudDAgFw03
MDAxMDEwMDAwMDBaGA85OTk5MTIzMTIzNTk1OVowNDERMA8GA1UECgwIVGVzdCBP
cmcxHzAdBgNVBAMMFlRlc3QgT3JnIERldmVsb3BtZW50LTEwggEiMA0GCSqGSIb3
DQEBAQUAA4IBDwAwggEKAoIBAQDvLoGz62GdcGl9RMIGwbYdAO5SS4BBUWLF4yGu
NQAFi9GKT8hcf7qn5zGlA/EZF0y0GVIFmPtfmvdfLmdAUDmpM0WYJpthnqU/lza+
Ov8Xn3v8LzU6Ijn3LHW2y2C+nHZdkH8L8l5vGA0THP95JgUI959gGb/++Byy71GH
1NSP5UHsmbE61z3Mxy6k9CfZcXrwPqa1svRq1wyEDxZ94JTxQBEXRn8i8g8iuYPp
m3rd8WO/ne/hvYPJUsuYQFb7aXIO6K50y9aM/7wm/Dzbk7pHTpWEQUM6aXhGiHqm
a7LxHTqt7BD1IMZD3+gm0yBE9Kgh28QxT70HaZTQ03gKCUmfAgMBAAGjgZEwgY4w
HQYDVR0OBBYEFKQqKE/1mEC42RCu0e9jQU55VlV8MGIGA1UdIwRbMFmAFBYe7FAh
nea0HaSv8IUT2Nel61J0oT6kPDA6MREwDwYDVQQKDAhUZXN0IE9yZzElMCMGA1UE
AwwcVGVzdCBPcmcgcmF1YyBDQSBEZXZlbG9wbWVudIIBATAJBgNVHRMEAjAAMA0G
CSqGSIb3DQEBCwUAA4IBAQBdW9H9q0OyzsR68PpQUUJFKga7mzqrvoNcNipuUyig
560RahLXx+WDNEl/Gdrl5d1E2gYaC7Dau189t14ugRSFVgOvxyNuloBvsO0KhyrI
7bGuyW0Po/B2mfGZd1oKGzwjFCqxaBPeRt53VAmJyOYGzceTNIfVWzeEUjzD8N90
sJk1aE6hwDY598Pbpi0vRqUy8Qy6as8fvqiBFhjv8geziRuehdMswcYZ0rySHSOl
Hoz4w+ZD0M+WAo2yiCcFt/Kx7f7lpTitV3jBqqprOE3EfnkgwL9CTBc3HBhgC4f8
kyf8zQzR9LieDtA6/POUiZK15c4HHt3QZ/hqhFLQiCBM
-----END CERTIFICATE-----
